target datalayout = "e-m:e-p270:32:32-p271:32:32-p272:64:64-i64:64-i128:128-f80:128-n8:16:32:64-S128"
target triple = "x86_64-pc-linux-gnu"

%"class.cv::KeyPoint" = type { %"class.cv::Point_", float, float, float, i32, i32 }
%"class.cv::Point_" = type { float, float }
%"class.cv::utils::trace::details::Region" = type <{ ptr, i32, [4 x i8] }>
%"struct.std::_Vector_base.1" = type { %"struct.std::_Vector_base<cv::Point_<float>, std::allocator<cv::Point_<float>>>::_Vector_impl" }
%"struct.std::_Vector_base<cv::Point_<float>, std::allocator<cv::Point_<float>>>::_Vector_impl" = type { %"struct.std::_Vector_base<cv::Point_<float>, std::allocator<cv::Point_<float>>>::_Vector_impl_data" }
%"struct.std::_Vector_base<cv::Point_<float>, std::allocator<cv::Point_<float>>>::_Vector_impl_data" = type { ptr, ptr, ptr }
%"struct.std::_Vector_base.6" = type { %"struct.std::_Vector_base<cv::KeyPoint, std::allocator<cv::KeyPoint>>::_Vector_impl" }
%"struct.std::_Vector_base<cv::KeyPoint, std::allocator<cv::KeyPoint>>::_Vector_impl" = type { %"struct.std::_Vector_base<cv::KeyPoint, std::allocator<cv::KeyPoint>>::_Vector_impl_data" }
%"struct.std::_Vector_base<cv::KeyPoint, std::allocator<cv::KeyPoint>>::_Vector_impl_data" = type { ptr, ptr, ptr }

; Function Attrs: mustprogress nounwind uwtable
define linkonce_odr hidden void @_ZNSt12_Destroy_auxILb1EE9__destroyIPN2cv8KeyPointEEEvT_S5_(ptr noundef %0, ptr noundef %1) #0 comdat align 2 {
  %3 = alloca ptr, align 8
  %4 = alloca ptr, align 8
  store ptr %0, ptr %3, align 8, !tbaa !3
  store ptr %1, ptr %4, align 8, !tbaa !3
  ret void
}

; Function Attrs: inlinehint mustprogress uwtable
define linkonce_odr void @_ZSt8_DestroyIPN2cv8KeyPointEEvT_S3_(ptr noundef %0, ptr noundef %1) #11 comdat {
  %3 = alloca ptr, align 8
  %4 = alloca ptr, align 8
  store ptr %0, ptr %3, align 8, !tbaa !3
  store ptr %1, ptr %4, align 8, !tbaa !3
  %5 = load ptr, ptr %3, align 8, !tbaa !3
  %6 = load ptr, ptr %4, align 8, !tbaa !3
  call void @_ZNSt12_Destroy_auxILb1EE9__destroyIPN2cv8KeyPointEEEvT_S5_(ptr noundef %5, ptr noundef %6)
  ret void
}

; Function Attrs: inlinehint mustprogress uwtable
define linkonce_odr void @_ZSt8_DestroyIPN2cv8KeyPointES1_EvT_S3_RSaIT0_E(ptr noundef %0, ptr noundef %1, ptr noundef nonnull align 1 dereferenceable(1) %2) #11 comdat {
  %4 = alloca ptr, align 8
  %5 = alloca ptr, align 8
  %6 = alloca ptr, align 8
  store ptr %0, ptr %4, align 8, !tbaa !3
  store ptr %1, ptr %5, align 8, !tbaa !3
  store ptr %2, ptr %6, align 8, !tbaa !137
  %7 = load ptr, ptr %4, align 8, !tbaa !3
  %8 = load ptr, ptr %5, align 8, !tbaa !3
  call void @_ZSt8_DestroyIPN2cv8KeyPointEEvT_S3_(ptr noundef %7, ptr noundef %8)
  ret void
}

; Function Attrs: mustprogress nounwind uwtable
define linkonce_odr hidden noundef nonnull align 1 dereferenceable(1) ptr @_ZNSt12_Vector_baseIN2cv8KeyPointESaIS1_EE19_M_get_Tp_allocatorEv(ptr noundef nonnull align 8 dereferenceable(24) %0) #0 comdat align 2 {
  %2 = alloca ptr, align 8
  store ptr %0, ptr %2, align 8, !tbaa !139
  %3 = load ptr, ptr %2, align 8
  %4 = getelementptr inbounds nuw %"struct.std::_Vector_base.6", ptr %3, i32 0, i32 0
  ret ptr %4
}

; Function Attrs: mustprogress nounwind uwtable
define linkonce_odr hidden void @_ZNSt6vectorIN2cv8KeyPointESaIS1_EE15_M_erase_at_endEPS1_(ptr noundef nonnull align 8 dereferenceable(24) %0, ptr noundef %1) #0 comdat align 2 personality ptr @__gxx_personality_v0 {
  %3 = alloca ptr, align 8
  %4 = alloca ptr, align 8
  %5 = alloca i64, align 8
  store ptr %0, ptr %3, align 8, !tbaa !22
  store ptr %1, ptr %4, align 8, !tbaa !3
  %6 = load ptr, ptr %3, align 8
  call void @llvm.lifetime.start.p0(i64 8, ptr %5) #18
  %7 = getelementptr inbounds nuw %"struct.std::_Vector_base.6", ptr %6, i32 0, i32 0
  %8 = getelementptr inbounds nuw %"struct.std::_Vector_base<cv::KeyPoint, std::allocator<cv::KeyPoint>>::_Vector_impl_data", ptr %7, i32 0, i32 1
  %9 = load ptr, ptr %8, align 8, !tbaa !37
  %10 = load ptr, ptr %4, align 8, !tbaa !3
  %11 = ptrtoint ptr %9 to i64
  %12 = ptrtoint ptr %10 to i64
  %13 = sub i64 %11, %12
  %14 = sdiv exact i64 %13, 28
  store i64 %14, ptr %5, align 8, !tbaa !8
  %15 = load i64, ptr %5, align 8, !tbaa !8
  %16 = icmp ne i64 %15, 0
  br i1 %16, label %17, label %27

17:                                               ; preds = %2
  %18 = load ptr, ptr %4, align 8, !tbaa !3
  %19 = getelementptr inbounds nuw %"struct.std::_Vector_base.6", ptr %6, i32 0, i32 0
  %20 = getelementptr inbounds nuw %"struct.std::_Vector_base<cv::KeyPoint, std::allocator<cv::KeyPoint>>::_Vector_impl_data", ptr %19, i32 0, i32 1
  %21 = load ptr, ptr %20, align 8, !tbaa !37
  %22 = call noundef nonnull align 1 dereferenceable(1) ptr @_ZNSt12_Vector_baseIN2cv8KeyPointESaIS1_EE19_M_get_Tp_allocatorEv(ptr noundef nonnull align 8 dereferenceable(24) %6) #18
  invoke void @_ZSt8_DestroyIPN2cv8KeyPointES1_EvT_S3_RSaIT0_E(ptr noundef %18, ptr noundef %21, ptr noundef nonnull align 1 dereferenceable(1) %22)
          to label %23 unwind label %28

23:                                               ; preds = %17
  %24 = load ptr, ptr %4, align 8, !tbaa !3
  %25 = getelementptr inbounds nuw %"struct.std::_Vector_base.6", ptr %6, i32 0, i32 0
  %26 = getelementptr inbounds nuw %"struct.std::_Vector_base<cv::KeyPoint, std::allocator<cv::KeyPoint>>::_Vector_impl_data", ptr %25, i32 0, i32 1
  store ptr %24, ptr %26, align 8, !tbaa !37
  br label %27

27:                                               ; preds = %23, %2
  call void @llvm.lifetime.end.p0(i64 8, ptr %5) #18
  ret void

28:                                               ; preds = %17
  %29 = landingpad { ptr, i32 }
          catch ptr null
  %30 = extractvalue { ptr, i32 } %29, 0
  call void @__clang_call_terminate(ptr %30) #20
  unreachable
}

; Function Attrs: mustprogress nounwind uwtable
define linkonce_odr hidden noundef i64 @_ZNKSt6vectorIN2cv8KeyPointESaIS1_EE4sizeEv(ptr noundef nonnull align 8 dereferenceable(24) %0) #0 comdat align 2 {
  %2 = alloca ptr, align 8
  store ptr %0, ptr %2, align 8, !tbaa !22
  %3 = load ptr, ptr %2, align 8
  %4 = getelementptr inbounds nuw %"struct.std::_Vector_base.6", ptr %3, i32 0, i32 0
  %5 = getelementptr inbounds nuw %"struct.std::_Vector_base<cv::KeyPoint, std::allocator<cv::KeyPoint>>::_Vector_impl_data", ptr %4, i32 0, i32 1
  %6 = load ptr, ptr %5, align 8, !tbaa !37
  %7 = getelementptr inbounds nuw %"struct.std::_Vector_base.6", ptr %3, i32 0, i32 0
  %8 = getelementptr inbounds nuw %"struct.std::_Vector_base<cv::KeyPoint, std::allocator<cv::KeyPoint>>::_Vector_impl_data", ptr %7, i32 0, i32 0
  %9 = load ptr, ptr %8, align 8, !tbaa !39
  %10 = ptrtoint ptr %6 to i64
  %11 = ptrtoint ptr %9 to i64
  %12 = sub i64 %10, %11
  %13 = sdiv exact i64 %12, 28
  ret i64 %13
}

; Function Attrs: mustprogress nounwind uwtable
define linkonce_odr hidden noundef nonnull align 4 dereferenceable(28) ptr @_ZNSt6vectorIN2cv8KeyPointESaIS1_EEixEm(ptr noundef nonnull align 8 dereferenceable(24) %0, i64 noundef %1) #0 comdat align 2 {
  %3 = alloca ptr, align 8
  %4 = alloca i64, align 8
  store ptr %0, ptr %3, align 8, !tbaa !22
  store i64 %1, ptr %4, align 8, !tbaa !8
  %5 = load ptr, ptr %3, align 8
  %6 = getelementptr inbounds nuw %"struct.std::_Vector_base.6", ptr %5, i32 0, i32 0
  %7 = getelementptr inbounds nuw %"struct.std::_Vector_base<cv::KeyPoint, std::allocator<cv::KeyPoint>>::_Vector_impl_data", ptr %6, i32 0, i32 0
  %8 = load ptr, ptr %7, align 8, !tbaa !39
  %9 = load i64, ptr %4, align 8, !tbaa !8
  %10 = getelementptr inbounds nuw %"class.cv::KeyPoint", ptr %8, i64 %9
  ret ptr %10
}

; Function Attrs: inlinehint mustprogress nounwind uwtable
define linkonce_odr hidden void @_ZN2cv8KeyPointC2ENS_6Point_IfEEfffii(ptr noundef nonnull align 4 dereferenceable(28) %0, <2 x float> %1, float noundef %2, float noundef %3, float noundef %4, i32 noundef %5, i32 noundef %6) unnamed_addr #8 comdat align 2 {
  %8 = alloca %"class.cv::Point_", align 4
  %9 = alloca ptr, align 8
  %10 = alloca float, align 4
  %11 = alloca float, align 4
  %12 = alloca float, align 4
  %13 = alloca i32, align 4
  %14 = alloca i32, align 4
  store <2 x float> %1, ptr %8, align 4
  store ptr %0, ptr %9, align 8, !tbaa !3
  store float %2, ptr %10, align 4, !tbaa !29
  store float %3, ptr %11, align 4, !tbaa !29
  store float %4, ptr %12, align 4, !tbaa !29
  store i32 %5, ptr %13, align 4, !tbaa !32
  store i32 %6, ptr %14, align 4, !tbaa !32
  %15 = load ptr, ptr %9, align 8
  %16 = getelementptr inbounds nuw %"class.cv::KeyPoint", ptr %15, i32 0, i32 0
  call void @llvm.memcpy.p0.p0.i64(ptr align 4 %16, ptr align 4 %8, i64 8, i1 false), !tbaa.struct !28
  %17 = getelementptr inbounds nuw %"class.cv::KeyPoint", ptr %15, i32 0, i32 1
  %18 = load float, ptr %10, align 4, !tbaa !29
  store float %18, ptr %17, align 4, !tbaa !17
  %19 = getelementptr inbounds nuw %"class.cv::KeyPoint", ptr %15, i32 0, i32 2
  %20 = load float, ptr %11, align 4, !tbaa !29
  store float %20, ptr %19, align 4, !tbaa !18
  %21 = getelementptr inbounds nuw %"class.cv::KeyPoint", ptr %15, i32 0, i32 3
  %22 = load float, ptr %12, align 4, !tbaa !29
  store float %22, ptr %21, align 4, !tbaa !19
  %23 = getelementptr inbounds nuw %"class.cv::KeyPoint", ptr %15, i32 0, i32 4
  %24 = load i32, ptr %13, align 4, !tbaa !32
  store i32 %24, ptr %23, align 4, !tbaa !20
  %25 = getelementptr inbounds nuw %"class.cv::KeyPoint", ptr %15, i32 0, i32 5
  %26 = load i32, ptr %14, align 4, !tbaa !32
  store i32 %26, ptr %25, align 4, !tbaa !21
  ret void
}

; Function Attrs: mustprogress nounwind uwtable
define linkonce_odr hidden noundef nonnull align 4 dereferenceable(8) ptr @_ZNKSt6vectorIN2cv6Point_IfEESaIS2_EEixEm(ptr noundef nonnull align 8 dereferenceable(24) %0, i64 noundef %1) #0 comdat align 2 {
  %3 = alloca ptr, align 8
  %4 = alloca i64, align 8
  store ptr %0, ptr %3, align 8, !tbaa !24
  store i64 %1, ptr %4, align 8, !tbaa !8
  %5 = load ptr, ptr %3, align 8
  %6 = getelementptr inbounds nuw %"struct.std::_Vector_base.1", ptr %5, i32 0, i32 0
  %7 = getelementptr inbounds nuw %"struct.std::_Vector_base<cv::Point_<float>, std::allocator<cv::Point_<float>>>::_Vector_impl_data", ptr %6, i32 0, i32 0
  %8 = load ptr, ptr %7, align 8, !tbaa !34
  %9 = load i64, ptr %4, align 8, !tbaa !8
  %10 = getelementptr inbounds nuw %"class.cv::Point_", ptr %8, i64 %9
  ret ptr %10
}

; Function Attrs: mustprogress uwtable
define linkonce_odr hidden void @_ZNSt6vectorIN2cv8KeyPointESaIS1_EE6resizeEm(ptr noundef nonnull align 8 dereferenceable(24) %0, i64 noundef %1) #2 comdat align 2 {
  %3 = alloca ptr, align 8
  %4 = alloca i64, align 8
  store ptr %0, ptr %3, align 8, !tbaa !22
  store i64 %1, ptr %4, align 8, !tbaa !8
  %5 = load ptr, ptr %3, align 8
  %6 = load i64, ptr %4, align 8, !tbaa !8
  %7 = call noundef i64 @_ZNKSt6vectorIN2cv8KeyPointESaIS1_EE4sizeEv(ptr noundef nonnull align 8 dereferenceable(24) %5) #18
  %8 = icmp ugt i64 %6, %7
  br i1 %8, label %9, label %13

9:                                                ; preds = %2
  %10 = load i64, ptr %4, align 8, !tbaa !8
  %11 = call noundef i64 @_ZNKSt6vectorIN2cv8KeyPointESaIS1_EE4sizeEv(ptr noundef nonnull align 8 dereferenceable(24) %5) #18
  %12 = sub i64 %10, %11
  call void @_ZNSt6vectorIN2cv8KeyPointESaIS1_EE17_M_default_appendEm(ptr noundef nonnull align 8 dereferenceable(24) %5, i64 noundef %12)
  br label %24

13:                                               ; preds = %2
  %14 = load i64, ptr %4, align 8, !tbaa !8
  %15 = call noundef i64 @_ZNKSt6vectorIN2cv8KeyPointESaIS1_EE4sizeEv(ptr noundef nonnull align 8 dereferenceable(24) %5) #18
  %16 = icmp ult i64 %14, %15
  br i1 %16, label %17, label %23

17:                                               ; preds = %13
  %18 = getelementptr inbounds nuw %"struct.std::_Vector_base.6", ptr %5, i32 0, i32 0
  %19 = getelementptr inbounds nuw %"struct.std::_Vector_base<cv::KeyPoint, std::allocator<cv::KeyPoint>>::_Vector_impl_data", ptr %18, i32 0, i32 0
  %20 = load ptr, ptr %19, align 8, !tbaa !39
  %21 = load i64, ptr %4, align 8, !tbaa !8
  %22 = getelementptr inbounds nuw %"class.cv::KeyPoint", ptr %20, i64 %21
  call void @_ZNSt6vectorIN2cv8KeyPointESaIS1_EE15_M_erase_at_endEPS1_(ptr noundef nonnull align 8 dereferenceable(24) %5, ptr noundef %22) #18
  br label %23

23:                                               ; preds = %17, %13
  br label %24

24:                                               ; preds = %23, %9
  ret void
}

; Function Attrs: mustprogress nounwind uwtable
define linkonce_odr hidden noundef i64 @_ZNKSt6vectorIN2cv6Point_IfEESaIS2_EE4sizeEv(ptr noundef nonnull align 8 dereferenceable(24) %0) #0 comdat align 2 {
  %2 = alloca ptr, align 8
  store ptr %0, ptr %2, align 8, !tbaa !24
  %3 = load ptr, ptr %2, align 8
  %4 = getelementptr inbounds nuw %"struct.std::_Vector_base.1", ptr %3, i32 0, i32 0
  %5 = getelementptr inbounds nuw %"struct.std::_Vector_base<cv::Point_<float>, std::allocator<cv::Point_<float>>>::_Vector_impl_data", ptr %4, i32 0, i32 1
  %6 = load ptr, ptr %5, align 8, !tbaa !57
  %7 = getelementptr inbounds nuw %"struct.std::_Vector_base.1", ptr %3, i32 0, i32 0
  %8 = getelementptr inbounds nuw %"struct.std::_Vector_base<cv::Point_<float>, std::allocator<cv::Point_<float>>>::_Vector_impl_data", ptr %7, i32 0, i32 0
  %9 = load ptr, ptr %8, align 8, !tbaa !34
  %10 = ptrtoint ptr %6 to i64
  %11 = ptrtoint ptr %9 to i64
  %12 = sub i64 %10, %11
  %13 = sdiv exact i64 %12, 8
  ret i64 %13
}

; Function Attrs: mustprogress uwtable
define void @_ZN2cv8KeyPoint7convertERKSt6vectorINS_6Point_IfEESaIS3_EERS1_IS0_SaIS0_EEffii(ptr noundef nonnull align 8 dereferenceable(24) %0, ptr noundef nonnull align 8 dereferenceable(24) %1, float noundef %2, float noundef %3, i32 noundef %4, i32 noundef %5) #7 align 2 personality ptr @__gxx_personality_v0 {
  %7 = alloca ptr, align 8
  %8 = alloca ptr, align 8
  %9 = alloca float, align 4
  %10 = alloca float, align 4
  %11 = alloca i32, align 4
  %12 = alloca i32, align 4
  %13 = alloca %"class.cv::utils::trace::details::Region", align 8
  %14 = alloca ptr, align 8
  %15 = alloca i32, align 4
  %16 = alloca i64, align 8
  %17 = alloca %"class.cv::KeyPoint", align 4
  %18 = alloca %"class.cv::Point_", align 4
  store ptr %0, ptr %7, align 8, !tbaa !24
  store ptr %1, ptr %8, align 8, !tbaa !22
  store float %2, ptr %9, align 4, !tbaa !29
  store float %3, ptr %10, align 4, !tbaa !29
  store i32 %4, ptr %11, align 4, !tbaa !32
  store i32 %5, ptr %12, align 4, !tbaa !32
  call void @llvm.lifetime.start.p0(i64 16, ptr %13) #18
  call void @_ZN2cv5utils5trace7details6RegionC1ERKNS3_21LocationStaticStorageE(ptr noundef nonnull align 8 dereferenceable(12) %13, ptr noundef nonnull align 8 dereferenceable(32) @_ZZN2cv8KeyPoint7convertERKSt6vectorINS_6Point_IfEESaIS3_EERS1_IS0_SaIS0_EEffiiE24__cv_trace_location_fn96)
  %19 = load ptr, ptr %8, align 8, !tbaa !22
  %20 = load ptr, ptr %7, align 8, !tbaa !24
  %21 = call noundef i64 @_ZNKSt6vectorIN2cv6Point_IfEESaIS2_EE4sizeEv(ptr noundef nonnull align 8 dereferenceable(24) %20) #18
  invoke void @_ZNSt6vectorIN2cv8KeyPointESaIS1_EE6resizeEm(ptr noundef nonnull align 8 dereferenceable(24) %19, i64 noundef %21)
          to label %22 unwind label %29

22:                                               ; preds = %6
  call void @llvm.lifetime.start.p0(i64 8, ptr %16) #18
  store i64 0, ptr %16, align 8, !tbaa !8
  br label %23

23:                                               ; preds = %46, %22
  %24 = load i64, ptr %16, align 8, !tbaa !8
  %25 = load ptr, ptr %7, align 8, !tbaa !24
  %26 = call noundef i64 @_ZNKSt6vectorIN2cv6Point_IfEESaIS2_EE4sizeEv(ptr noundef nonnull align 8 dereferenceable(24) %25) #18
  %27 = icmp ult i64 %24, %26
  br i1 %27, label %33, label %28

28:                                               ; preds = %23
  call void @llvm.lifetime.end.p0(i64 8, ptr %16) #18
  br label %53

29:                                               ; preds = %6
  %30 = landingpad { ptr, i32 }
          cleanup
  %31 = extractvalue { ptr, i32 } %30, 0
  store ptr %31, ptr %14, align 8
  %32 = extractvalue { ptr, i32 } %30, 1
  store i32 %32, ptr %15, align 4
  br label %54

33:                                               ; preds = %23
  call void @llvm.lifetime.start.p0(i64 28, ptr %17) #18
  %34 = load ptr, ptr %7, align 8, !tbaa !24
  %35 = load i64, ptr %16, align 8, !tbaa !8
  %36 = call noundef nonnull align 4 dereferenceable(8) ptr @_ZNKSt6vectorIN2cv6Point_IfEESaIS2_EEixEm(ptr noundef nonnull align 8 dereferenceable(24) %34, i64 noundef %35) #18
  call void @llvm.memcpy.p0.p0.i64(ptr align 4 %18, ptr align 4 %36, i64 8, i1 false), !tbaa.struct !28
  %37 = load float, ptr %9, align 4, !tbaa !29
  %38 = load float, ptr %10, align 4, !tbaa !29
  %39 = load i32, ptr %11, align 4, !tbaa !32
  %40 = load i32, ptr %12, align 4, !tbaa !32
  %41 = load <2 x float>, ptr %18, align 4
  invoke void @_ZN2cv8KeyPointC2ENS_6Point_IfEEfffii(ptr noundef nonnull align 4 dereferenceable(28) %17, <2 x float> %41, float noundef %37, float noundef -1.000000e+00, float noundef %38, i32 noundef %39, i32 noundef %40)
          to label %42 unwind label %49

42:                                               ; preds = %33
  %43 = load ptr, ptr %8, align 8, !tbaa !22
  %44 = load i64, ptr %16, align 8, !tbaa !8
  %45 = call noundef nonnull align 4 dereferenceable(28) ptr @_ZNSt6vectorIN2cv8KeyPointESaIS1_EEixEm(ptr noundef nonnull align 8 dereferenceable(24) %43, i64 noundef %44) #18
  call void @llvm.memcpy.p0.p0.i64(ptr align 4 %45, ptr align 4 %17, i64 28, i1 false), !tbaa.struct !55
  call void @llvm.lifetime.end.p0(i64 28, ptr %17) #18
  br label %46

46:                                               ; preds = %42
  %47 = load i64, ptr %16, align 8, !tbaa !8
  %48 = add i64 %47, 1
  store i64 %48, ptr %16, align 8, !tbaa !8
  br label %23, !llvm.loop !56

49:                                               ; preds = %33
  %50 = landingpad { ptr, i32 }
          cleanup
  %51 = extractvalue { ptr, i32 } %50, 0
  store ptr %51, ptr %14, align 8
  %52 = extractvalue { ptr, i32 } %50, 1
  store i32 %52, ptr %15, align 4
  call void @llvm.lifetime.end.p0(i64 28, ptr %17) #18
  call void @llvm.lifetime.end.p0(i64 8, ptr %16) #18
  br label %54

53:                                               ; preds = %28
  call void @_ZN2cv5utils5trace7details6RegionD2Ev(ptr noundef nonnull align 8 dereferenceable(12) %13) #18
  call void @llvm.lifetime.end.p0(i64 16, ptr %13) #18
  ret void

54:                                               ; preds = %49, %29
  call void @_ZN2cv5utils5trace7details6RegionD2Ev(ptr noundef nonnull align 8 dereferenceable(12) %13) #18
  call void @llvm.lifetime.end.p0(i64 16, ptr %13) #18
  br label %55

55:                                               ; preds = %54
  %56 = load ptr, ptr %14, align 8
  %57 = load i32, ptr %15, align 4
  %58 = insertvalue { ptr, i32 } poison, ptr %56, 0
  %59 = insertvalue { ptr, i32 } %58, i32 %57, 1
  resume { ptr, i32 } %59
}