; Function Attrs: mustprogress uwtable
define void @_ZN2cv8KeyPoint7convertERKSt6vectorINS_6Point_IfEESaIS3_EERS1_IS0_SaIS0_EEffii(ptr noundef nonnull readonly align 8 captures(none) dereferenceable(24) %0, ptr noundef nonnull align 8 dereferenceable(24) %1, float noundef %2, float noundef %3, i32 noundef %4, i32 noundef %5) local_unnamed_addr #7 align 2 personality ptr @__gxx_personality_v0 {
  %7 = alloca %"class.cv::utils::trace::details::Region", align 8
  call void @llvm.lifetime.start.p0(i64 16, ptr nonnull %7) #20
  call void @_ZN2cv5utils5trace7details6RegionC1ERKNS3_21LocationStaticStorageE(ptr noundef nonnull align 8 dereferenceable(12) %7, ptr noundef nonnull align 8 dereferenceable(32) @_ZZN2cv8KeyPoint7convertERKSt6vectorINS_6Point_IfEESaIS3_EERS1_IS0_SaIS0_EEffiiE24__cv_trace_location_fn96)
  %8 = getelementptr inbounds nuw i8, ptr %0, i64 8
  %9 = load ptr, ptr %8, align 8, !tbaa !42
  %10 = load ptr, ptr %0, align 8, !tbaa !23
  %11 = ptrtoint ptr %9 to i64
  %12 = ptrtoint ptr %10 to i64
  %13 = sub i64 %11, %12
  %14 = ashr exact i64 %13, 3
  %15 = getelementptr inbounds nuw i8, ptr %1, i64 8
  %16 = load ptr, ptr %15, align 8, !tbaa !19
  %17 = load ptr, ptr %1, align 8, !tbaa !22
  %18 = ptrtoint ptr %16 to i64
  %19 = ptrtoint ptr %17 to i64
  %20 = sub i64 %18, %19
  %21 = sdiv exact i64 %20, 28
  %22 = icmp ugt i64 %14, %21
  br i1 %22, label %23, label %25

23:                                               ; preds = %6
  %24 = sub nuw nsw i64 %14, %21
  invoke void @_ZNSt6vectorIN2cv8KeyPointESaIS1_EE17_M_default_appendEm(ptr noundef nonnull align 8 dereferenceable(24) %1, i64 noundef %24)
          to label %._ZNSt6vectorIN2cv8KeyPointESaIS1_EE6resizeEm.exit_crit_edge unwind label %38

._ZNSt6vectorIN2cv8KeyPointESaIS1_EE6resizeEm.exit_crit_edge: ; preds = %23
  %.pre = load ptr, ptr %8, align 8, !tbaa !42
  %.pre16 = load ptr, ptr %0, align 8, !tbaa !23
  br label %_ZNSt6vectorIN2cv8KeyPointESaIS1_EE6resizeEm.exit

25:                                               ; preds = %6
  %26 = icmp ult i64 %14, %21
  br i1 %26, label %27, label %_ZNSt6vectorIN2cv8KeyPointESaIS1_EE6resizeEm.exit

27:                                               ; preds = %25
  %28 = getelementptr inbounds nuw %"class.cv::KeyPoint", ptr %17, i64 %14
  %.not.i.i = icmp eq ptr %16, %28
  br i1 %.not.i.i, label %_ZNSt6vectorIN2cv8KeyPointESaIS1_EE6resizeEm.exit, label %29

29:                                               ; preds = %27
  store ptr %28, ptr %15, align 8, !tbaa !19
  br label %_ZNSt6vectorIN2cv8KeyPointESaIS1_EE6resizeEm.exit

_ZNSt6vectorIN2cv8KeyPointESaIS1_EE6resizeEm.exit: ; preds = %._ZNSt6vectorIN2cv8KeyPointESaIS1_EE6resizeEm.exit_crit_edge, %25, %27, %29
  %30 = phi ptr [ %.pre16, %._ZNSt6vectorIN2cv8KeyPointESaIS1_EE6resizeEm.exit_crit_edge ], [ %10, %25 ], [ %10, %27 ], [ %10, %29 ]
  %31 = phi ptr [ %.pre, %._ZNSt6vectorIN2cv8KeyPointESaIS1_EE6resizeEm.exit_crit_edge ], [ %9, %25 ], [ %9, %27 ], [ %9, %29 ]
  %.not = icmp eq ptr %31, %30
  br i1 %.not, label %._crit_edge, label %.lr.ph

._crit_edge:                                      ; preds = %.lr.ph, %_ZNSt6vectorIN2cv8KeyPointESaIS1_EE6resizeEm.exit
  %32 = getelementptr inbounds nuw i8, ptr %7, i64 8
  %33 = load i32, ptr %32, align 8, !tbaa !39
  %.not.i = icmp eq i32 %33, 0
  br i1 %.not.i, label %_ZN2cv5utils5trace7details6RegionD2Ev.exit, label %34

34:                                               ; preds = %._crit_edge
  invoke void @_ZN2cv5utils5trace7details6Region7destroyEv(ptr noundef nonnull align 8 dereferenceable(12) %7)
          to label %_ZN2cv5utils5trace7details6RegionD2Ev.exit unwind label %35

35:                                               ; preds = %34
  %36 = landingpad { ptr, i32 }
          catch ptr null
  %37 = extractvalue { ptr, i32 } %36, 0
  call void @__clang_call_terminate(ptr %37) #23
  unreachable

_ZN2cv5utils5trace7details6RegionD2Ev.exit:       ; preds = %._crit_edge, %34
  call void @llvm.lifetime.end.p0(i64 16, ptr nonnull %7) #20
  ret void

38:                                               ; preds = %23
  %39 = landingpad { ptr, i32 }
          cleanup
  call void @_ZN2cv5utils5trace7details6RegionD2Ev(ptr noundef nonnull align 8 dereferenceable(12) %7) #20
  call void @llvm.lifetime.end.p0(i64 16, ptr nonnull %7) #20
  resume { ptr, i32 } %39

.lr.ph:                                           ; preds = %_ZNSt6vectorIN2cv8KeyPointESaIS1_EE6resizeEm.exit, %.lr.ph
  %40 = phi ptr [ %46, %.lr.ph ], [ %30, %_ZNSt6vectorIN2cv8KeyPointESaIS1_EE6resizeEm.exit ]
  %.015 = phi i64 [ %44, %.lr.ph ], [ 0, %_ZNSt6vectorIN2cv8KeyPointESaIS1_EE6resizeEm.exit ]
  %41 = getelementptr inbounds nuw %"class.cv::Point_", ptr %40, i64 %.015
  %.sroa.0.0.copyload = load <2 x float>, ptr %41, align 4
  %42 = load ptr, ptr %1, align 8, !tbaa !22
  %43 = getelementptr inbounds nuw %"class.cv::KeyPoint", ptr %42, i64 %.015
  store <2 x float> %.sroa.0.0.copyload, ptr %43, align 4
  %.sroa.4.0..sroa_idx = getelementptr inbounds nuw i8, ptr %43, i64 8
  store float %2, ptr %.sroa.4.0..sroa_idx, align 4, !tbaa !44
  %.sroa.5.0..sroa_idx = getelementptr inbounds nuw i8, ptr %43, i64 12
  store float -1.000000e+00, ptr %.sroa.5.0..sroa_idx, align 4, !tbaa !44
  %.sroa.6.0..sroa_idx = getelementptr inbounds nuw i8, ptr %43, i64 16
  store float %3, ptr %.sroa.6.0..sroa_idx, align 4, !tbaa !44
  %.sroa.7.0..sroa_idx = getelementptr inbounds nuw i8, ptr %43, i64 20
  store i32 %4, ptr %.sroa.7.0..sroa_idx, align 4, !tbaa !31
  %.sroa.8.0..sroa_idx = getelementptr inbounds nuw i8, ptr %43, i64 24
  store i32 %5, ptr %.sroa.8.0..sroa_idx, align 4, !tbaa !31
  %44 = add nuw i64 %.015, 1
  %45 = load ptr, ptr %8, align 8, !tbaa !42
  %46 = load ptr, ptr %0, align 8, !tbaa !23
  %47 = ptrtoint ptr %45 to i64
  %48 = ptrtoint ptr %46 to i64
  %49 = sub i64 %47, %48
  %50 = ashr exact i64 %49, 3
  %51 = icmp ult i64 %44, %50
  br i1 %51, label %.lr.ph, label %._crit_edge, !llvm.loop !51
}